; Function Attrs: mustprogress nounwind uwtable
define hidden noundef ptr @_ZNK5ciEnv11replay_nameEPK13InstanceKlass(ptr nocapture noundef nonnull readonly align 8 dereferenceable(1265) %0, ptr noundef %1) local_unnamed_addr #0 align 2 {
  %3 = tail call noundef ptr @_ZNK5ciEnv9dyno_nameEPK13InstanceKlass(ptr noundef nonnull align 8 dereferenceable(1265) %0, ptr noundef %1)
  %.not = icmp eq ptr %3, null
  br i1 %.not, label %4, label %8

4:                                                ; preds = %2
  %5 = getelementptr inbounds i8, ptr %1, i64 24
  %6 = load ptr, ptr %5, align 8
  %7 = tail call noundef ptr @_ZNK6Symbol15as_quoted_asciiEv(ptr noundef nonnull align 4 dereferenceable(8) %6) #18
  br label %8

8:                                                ; preds = %2, %4
  %.0 = phi ptr [ %7, %4 ], [ %3, %2 ]
  ret ptr %.0
}